; ModuleID = '22/298.c'
source_filename = "22/298.c"
target datalayout = "e-m:e-p270:32:32-p271:32:32-p272:64:64-i64:64-f80:128-n8:16:32:64-S128"
target triple = "x86_64-pc-linux-gnu"

@.str = private unnamed_addr constant [4 x i8] c"%d,\00", align 1
@.str.1 = private unnamed_addr constant [3 x i8] c"%d\00", align 1
@.str.2 = private unnamed_addr constant [3 x i8] c"No\00", align 1

; Function Attrs: noinline nounwind uwtable
define dso_local void @main() #0 {
  %1 = alloca i32, align 4
  %2 = alloca i32, align 4
  %3 = alloca i32, align 4
  %4 = alloca i32, align 4
  %5 = alloca i32, align 4
  %6 = alloca i32, align 4
  %7 = alloca [1000 x i32], align 16
  store i32 0, i32* %2, align 4
  br label %8

8:                                                ; preds = %15, %0
  %9 = load i32, i32* %2, align 4
  %10 = sext i32 %9 to i64
  %11 = getelementptr inbounds [1000 x i32], [1000 x i32]* %7, i64 0, i64 %10
  %12 = call i32 (i8*, ...) @__isoc99_scanf(i8* getelementptr inbounds ([4 x i8], [4 x i8]* @.str, i64 0, i64 0), i32* %11)
  %13 = icmp ne i32 %12, -1
  br i1 %13, label %14, label %18

14:                                               ; preds = %8
  br label %15

15:                                               ; preds = %14
  %16 = load i32, i32* %2, align 4
  %17 = add nsw i32 %16, 1
  store i32 %17, i32* %2, align 4
  br label %8

18:                                               ; preds = %8
  %19 = load i32, i32* %1, align 4
  %20 = sext i32 %19 to i64
  %21 = getelementptr inbounds [1000 x i32], [1000 x i32]* %7, i64 0, i64 %20
  %22 = call i32 (i8*, ...) @__isoc99_scanf(i8* getelementptr inbounds ([3 x i8], [3 x i8]* @.str.1, i64 0, i64 0), i32* %21)
  store i32 0, i32* %3, align 4
  br label %23

23:                                               ; preds = %70, %18
  %24 = load i32, i32* %3, align 4
  %25 = load i32, i32* %2, align 4
  %26 = sub nsw i32 %25, 1
  %27 = icmp slt i32 %24, %26
  br i1 %27, label %28, label %73

28:                                               ; preds = %23
  store i32 0, i32* %4, align 4
  br label %29

29:                                               ; preds = %66, %28
  %30 = load i32, i32* %4, align 4
  %31 = load i32, i32* %2, align 4
  %32 = load i32, i32* %3, align 4
  %33 = sub nsw i32 %31, %32
  %34 = sub nsw i32 %33, 1
  %35 = icmp slt i32 %30, %34
  br i1 %35, label %36, label %69

36:                                               ; preds = %29
  %37 = load i32, i32* %4, align 4
  %38 = sext i32 %37 to i64
  %39 = getelementptr inbounds [1000 x i32], [1000 x i32]* %7, i64 0, i64 %38
  %40 = load i32, i32* %39, align 4
  %41 = load i32, i32* %4, align 4
  %42 = add nsw i32 %41, 1
  %43 = sext i32 %42 to i64
  %44 = getelementptr inbounds [1000 x i32], [1000 x i32]* %7, i64 0, i64 %43
  %45 = load i32, i32* %44, align 4
  %46 = icmp slt i32 %40, %45
  br i1 %46, label %47, label %65

47:                                               ; preds = %36
  %48 = load i32, i32* %4, align 4
  %49 = sext i32 %48 to i64
  %50 = getelementptr inbounds [1000 x i32], [1000 x i32]* %7, i64 0, i64 %49
  %51 = load i32, i32* %50, align 4
  store i32 %51, i32* %5, align 4
  %52 = load i32, i32* %4, align 4
  %53 = add nsw i32 %52, 1
  %54 = sext i32 %53 to i64
  %55 = getelementptr inbounds [1000 x i32], [1000 x i32]* %7, i64 0, i64 %54
  %56 = load i32, i32* %55, align 4
  %57 = load i32, i32* %4, align 4
  %58 = sext i32 %57 to i64
  %59 = getelementptr inbounds [1000 x i32], [1000 x i32]* %7, i64 0, i64 %58
  store i32 %56, i32* %59, align 4
  %60 = load i32, i32* %5, align 4
  %61 = load i32, i32* %4, align 4
  %62 = add nsw i32 %61, 1
  %63 = sext i32 %62 to i64
  %64 = getelementptr inbounds [1000 x i32], [1000 x i32]* %7, i64 0, i64 %63
  store i32 %60, i32* %64, align 4
  br label %65

65:                                               ; preds = %47, %36
  br label %66

66:                                               ; preds = %65
  %67 = load i32, i32* %4, align 4
  %68 = add nsw i32 %67, 1
  store i32 %68, i32* %4, align 4
  br label %29

69:                                               ; preds = %29
  br label %70

70:                                               ; preds = %69
  %71 = load i32, i32* %3, align 4
  %72 = add nsw i32 %71, 1
  store i32 %72, i32* %3, align 4
  br label %23

73:                                               ; preds = %23
  store i32 1, i32* %6, align 4
  br label %74

74:                                               ; preds = %88, %73
  %75 = load i32, i32* %6, align 4
  %76 = load i32, i32* %2, align 4
  %77 = icmp slt i32 %75, %76
  br i1 %77, label %78, label %91

78:                                               ; preds = %74
  %79 = load i32, i32* %6, align 4
  %80 = sext i32 %79 to i64
  %81 = getelementptr inbounds [1000 x i32], [1000 x i32]* %7, i64 0, i64 %80
  %82 = load i32, i32* %81, align 4
  %83 = getelementptr inbounds [1000 x i32], [1000 x i32]* %7, i64 0, i64 0
  %84 = load i32, i32* %83, align 16
  %85 = icmp ne i32 %82, %84
  br i1 %85, label %86, label %87

86:                                               ; preds = %78
  br label %91

87:                                               ; preds = %78
  br label %88

88:                                               ; preds = %87
  %89 = load i32, i32* %6, align 4
  %90 = add nsw i32 %89, 1
  store i32 %90, i32* %6, align 4
  br label %74

91:                                               ; preds = %86, %74
  %92 = load i32, i32* %6, align 4
  %93 = load i32, i32* %2, align 4
  %94 = icmp eq i32 %92, %93
  br i1 %94, label %98, label %95

95:                                               ; preds = %91
  %96 = load i32, i32* %2, align 4
  %97 = icmp eq i32 %96, 1
  br i1 %97, label %98, label %100

98:                                               ; preds = %95, %91
  %99 = call i32 (i8*, ...) @printf(i8* getelementptr inbounds ([3 x i8], [3 x i8]* @.str.2, i64 0, i64 0))
  br label %106

100:                                              ; preds = %95
  %101 = load i32, i32* %6, align 4
  %102 = sext i32 %101 to i64
  %103 = getelementptr inbounds [1000 x i32], [1000 x i32]* %7, i64 0, i64 %102
  %104 = load i32, i32* %103, align 4
  %105 = call i32 (i8*, ...) @printf(i8* getelementptr inbounds ([3 x i8], [3 x i8]* @.str.1, i64 0, i64 0), i32 %104)
  br label %106

106:                                              ; preds = %100, %98
  ret void
}

declare dso_local i32 @__isoc99_scanf(i8*, ...) #1

declare dso_local i32 @printf(i8*, ...) #1


!llvm.module.flags = !{!0}
!llvm.ident = !{!1}

!0 = !{i32 1, !"wchar_size", i32 4}
!1 = !{!"clang version 10.0.0-4ubuntu1 "}
